{
   <insert_a_suppression_name_here>
   Memcheck:Leak
   match-leak-kinds: possible
   fun:_Znwm
   fun:_GLOBAL__sub_I_model_asap7.cc
   fun:call_init.part.0
   fun:call_init
   fun:_dl_init
   obj:/usr/lib/x86_64-linux-gnu/ld-linux-x86-64.so.2
}
{
   <insert_a_suppression_name_here>
   Memcheck:Leak
   match-leak-kinds: possible
   fun:_Znwm
   fun:_GLOBAL__sub_I_model_sky130.cc
   fun:call_init.part.0
   fun:call_init
   fun:_dl_init
   obj:/usr/lib/x86_64-linux-gnu/ld-linux-x86-64.so.2
}
{
   <insert_a_suppression_name_here>
   Memcheck:Leak
   match-leak-kinds: possible
   fun:_Znwm
   fun:_GLOBAL__sub_I_model_unit.cc
   fun:call_init.part.0
   fun:call_init
   fun:_dl_init
   obj:/usr/lib/x86_64-linux-gnu/ld-linux-x86-64.so.2
}
{
   <insert_a_suppression_name_here>
   Memcheck:Leak
   match-leak-kinds: possible
   fun:_Znwm
   fun:_ZN4absl12lts_2024072218container_internal19HashSetResizeHelper15InitializeSlotsISaIcELm40ELb0ELb0ELm8EEEbRNS1_12CommonFieldsET_NS1_6ctrl_tEmm
   fun:_ZN4absl12lts_2024072218container_internal12raw_hash_setINS1_17FlatHashMapPolicyIN19operations_research8math_opt15SolverTypeProtoESt8functionIFNS0_8StatusOrISt10unique_ptrINS5_15SolverInterfaceESt14default_deleteISA_EEEERKNS5_10ModelProtoERKNSA_8InitArgsEEEEENS0_13hash_internal4HashIS6_EESt8equal_toIS6_ESaISt4pairIKS6_SM_EEE11resize_implERNS1_12CommonFieldsEmNS1_20HashtablezInfoHandleE
   fun:_ZN4absl12lts_2024072218container_internal19PrepareInsertNonSooERNS1_12CommonFieldsEmNS1_8FindInfoERKNS1_15PolicyFunctionsE
   fun:_ZN4absl12lts_2024072218container_internal12raw_hash_setINS1_17FlatHashMapPolicyIN19operations_research8math_opt15SolverTypeProtoESt8functionIFNS0_8StatusOrISt10unique_ptrINS5_15SolverInterfaceESt14default_deleteISA_EEEERKNS5_10ModelProtoERKNSA_8InitArgsEEEEENS0_13hash_internal4HashIS6_EESt8equal_toIS6_ESaISt4pairIKS6_SM_EEE30find_or_prepare_insert_non_sooIS6_EEST_INSX_8iteratorEbERKT_
   fun:_ZN19operations_research8math_opt18AllSolversRegistry8RegisterENS0_15SolverTypeProtoESt8functionIFN4absl12lts_202407228StatusOrISt10unique_ptrINS0_15SolverInterfaceESt14default_deleteIS8_EEEERKNS0_10ModelProtoERKNS8_8InitArgsEEE
   fun:_GLOBAL__sub_I_glop_solver.cc
   fun:call_init.part.0
   fun:call_init
   fun:_dl_init
   obj:/usr/lib/x86_64-linux-gnu/ld-linux-x86-64.so.2
}
{
   <insert_a_suppression_name_here>
   Memcheck:Leak
   match-leak-kinds: possible
   fun:_Znwm
   fun:_ZN4absl12lts_2024072218container_internal19HashSetResizeHelper15InitializeSlotsISaIcELm48ELb1ELb0ELm8EEEbRNS1_12CommonFieldsET_NS1_6ctrl_tEmm
   fun:_ZN4absl12lts_2024072218container_internal12raw_hash_setINS1_17FlatHashSetPolicyIN6google8protobuf8internal13ExtensionInfoEEENS6_12_GLOBAL__N_115ExtensionHasherENS9_11ExtensionEqESaIS7_EE11resize_implERNS1_12CommonFieldsEmNS1_20HashtablezInfoHandleE
   fun:_ZN4absl12lts_2024072218container_internal19PrepareInsertNonSooERNS1_12CommonFieldsEmNS1_8FindInfoERKNS1_15PolicyFunctionsE
   fun:_ZN6google8protobuf8internal12_GLOBAL__N_18RegisterERKNS1_13ExtensionInfoE
   fun:_ZN6google8protobuf8internal12ExtensionSet21RegisterEnumExtensionEPKNS0_11MessageLiteEihbbPFbiE
   fun:call_init.part.0
   fun:call_init
   fun:_dl_init
   obj:/usr/lib/x86_64-linux-gnu/ld-linux-x86-64.so.2
}
{
   <insert_a_suppression_name_here>
   Memcheck:Leak
   match-leak-kinds: possible
   fun:_Znwm
   fun:_ZN4absl12lts_2024072218container_internal19HashSetResizeHelper15InitializeSlotsISaIcELm48ELb0ELb0ELm8EEEbRNS1_12CommonFieldsET_NS1_6ctrl_tEmm
   fun:_ZN4absl12lts_2024072218container_internal12raw_hash_setINS1_17FlatHashMapPolicyINSt7__cxx1112basic_stringIcSt11char_traitsIcESaIcEEESt4pairIN3xls24DelayEstimatorPrecedenceESt10unique_ptrINSB_14DelayEstimatorESt14default_deleteISE_EEEEENS1_10StringHashENS1_8StringEqESaISA_IKS9_SI_EEE11resize_implERNS1_12CommonFieldsEmNS1_20HashtablezInfoHandleE
   fun:_ZN4absl12lts_2024072218container_internal19PrepareInsertNonSooERNS1_12CommonFieldsEmNS1_8FindInfoERKNS1_15PolicyFunctionsE
   fun:_ZN4absl12lts_2024072218container_internal12raw_hash_setINS1_17FlatHashMapPolicyINSt7__cxx1112basic_stringIcSt11char_traitsIcESaIcEEESt4pairIN3xls24DelayEstimatorPrecedenceESt10unique_ptrINSB_14DelayEstimatorESt14default_deleteISE_EEEEENS1_10StringHashENS1_8StringEqESaISA_IKS9_SI_EEE30find_or_prepare_insert_non_sooIS9_EESA_INSP_8iteratorEbERKT_
   fun:_ZN4absl12lts_2024072218container_internal12raw_hash_mapINS1_17FlatHashMapPolicyINSt7__cxx1112basic_stringIcSt11char_traitsIcESaIcEEESt4pairIN3xls24DelayEstimatorPrecedenceESt10unique_ptrINSB_14DelayEstimatorESt14default_deleteISE_EEEEENS1_10StringHashENS1_8StringEqESaISA_IKS9_SI_EEE16try_emplace_implIRSM_JEEESA_INS1_12raw_hash_setISJ_SK_SL_SO_E8iteratorEbEOT_DpOT0_
   fun:_ZN3xls21DelayEstimatorManager22RegisterDelayEstimatorESt10unique_ptrINS_14DelayEstimatorESt14default_deleteIS2_EENS_24DelayEstimatorPrecedenceE
   fun:_GLOBAL__sub_I_model_sky130.cc
   fun:call_init.part.0
   fun:call_init
   fun:_dl_init
   obj:/usr/lib/x86_64-linux-gnu/ld-linux-x86-64.so.2
}
{
   <insert_a_suppression_name_here>
   Memcheck:Leak
   match-leak-kinds: possible
   fun:_Znwm
   fun:_ZNK4absl12lts_2024072218container_internal12raw_hash_setINS1_17FlatHashMapPolicyINSt7__cxx1112basic_stringIcSt11char_traitsIcESaIcEEEN6google8protobuf10Descriptor13WellKnownTypeEEENS1_10StringHashENS1_8StringEqESaISt4pairIKS9_SD_EEE19EmplaceDecomposableclIS9_JRKSt21piecewise_construct_tSt5tupleIJRSI_EESR_IJRKSD_EEEEESH_INSL_8iteratorEbERKT_DpOT0_
   fun:_ZN6google8protobuf14DescriptorPool6TablesC1Ev
   fun:_ZN6google8protobuf14DescriptorPoolC1EPNS0_18DescriptorDatabaseEPNS1_14ErrorCollectorE
   fun:_ZN6google8protobuf12_GLOBAL__N_116NewGeneratedPoolEv
   fun:_ZN6google8protobuf14DescriptorPool24InternalAddGeneratedFileEPKvi
   fun:_ZN6google8protobuf8internal14AddDescriptorsEPKNS1_15DescriptorTableE
   fun:_ZN6google8protobuf8internal14AddDescriptorsEPKNS1_15DescriptorTableE
   fun:call_init.part.0
   fun:call_init
   fun:_dl_init
   obj:/usr/lib/x86_64-linux-gnu/ld-linux-x86-64.so.2
}
{
   <insert_a_suppression_name_here>
   Memcheck:Leak
   match-leak-kinds: possible
   fun:_Znwm
   fun:_ZN4absl12lts_2024072218container_internal19HashSetResizeHelper15InitializeSlotsISaIcELm8ELb1ELb1ELm8EEEbRNS1_12CommonFieldsET_NS1_6ctrl_tEmm
   fun:_ZN4absl12lts_2024072218container_internal12raw_hash_setINS1_17FlatHashSetPolicyIPKN6google8protobuf8internal15DescriptorTableEEENS5_12_GLOBAL__N_123GeneratedMessageFactory20DescriptorByNameHashENSC_18DescriptorByNameEqESaIS9_EE11resize_implERNS1_12CommonFieldsEmNS1_20HashtablezInfoHandleE
   fun:_ZN4absl12lts_2024072218container_internal19PrepareInsertNonSooERNS1_12CommonFieldsEmNS1_8FindInfoERKNS1_15PolicyFunctionsE
   fun:_ZN6google8protobuf14MessageFactory29InternalRegisterGeneratedFileEPKNS0_8internal15DescriptorTableE
   fun:_ZN6google8protobuf8internal14AddDescriptorsEPKNS1_15DescriptorTableE
   fun:_ZN6google8protobuf8internal14AddDescriptorsEPKNS1_15DescriptorTableE
   fun:call_init.part.0
   fun:call_init
   fun:_dl_init
   obj:/usr/lib/x86_64-linux-gnu/ld-linux-x86-64.so.2
}
{
   <insert_a_suppression_name_here>
   Memcheck:Leak
   match-leak-kinds: possible
   fun:_Znwm
   fun:_ZN4absl12lts_2024072218container_internal19HashSetResizeHelper15InitializeSlotsISaIcELm40ELb0ELb0ELm8EEEbRNS1_12CommonFieldsET_NS1_6ctrl_tEmm
   fun:_ZN4absl12lts_2024072218container_internal12raw_hash_setINS1_17FlatHashMapPolicyINSt7__cxx1112basic_stringIcSt11char_traitsIcESaIcEEEN6google8protobuf10Descriptor13WellKnownTypeEEENS1_10StringHashENS1_8StringEqESaISt4pairIKS9_SD_EEE11resize_implERNS1_12CommonFieldsEmNS1_20HashtablezInfoHandleE
   fun:_ZN4absl12lts_2024072218container_internal19PrepareInsertNonSooERNS1_12CommonFieldsEmNS1_8FindInfoERKNS1_15PolicyFunctionsE
   fun:_ZN4absl12lts_2024072218container_internal12raw_hash_setINS1_17FlatHashMapPolicyINSt7__cxx1112basic_stringIcSt11char_traitsIcESaIcEEEN6google8protobuf10Descriptor13WellKnownTypeEEENS1_10StringHashENS1_8StringEqESaISt4pairIKS9_SD_EEE30find_or_prepare_insert_non_sooIS9_EESH_INSL_8iteratorEbERKT_
   fun:_ZNK4absl12lts_2024072218container_internal12raw_hash_setINS1_17FlatHashMapPolicyINSt7__cxx1112basic_stringIcSt11char_traitsIcESaIcEEEN6google8protobuf10Descriptor13WellKnownTypeEEENS1_10StringHashENS1_8StringEqESaISt4pairIKS9_SD_EEE19EmplaceDecomposableclIS9_JRKSt21piecewise_construct_tSt5tupleIJRSI_EESR_IJRKSD_EEEEESH_INSL_8iteratorEbERKT_DpOT0_
   fun:_ZN6google8protobuf14DescriptorPool6TablesC1Ev
   fun:_ZN6google8protobuf14DescriptorPoolC1EPNS0_18DescriptorDatabaseEPNS1_14ErrorCollectorE
   fun:_ZN6google8protobuf12_GLOBAL__N_116NewGeneratedPoolEv
   fun:_ZN6google8protobuf14DescriptorPool24InternalAddGeneratedFileEPKvi
   fun:_ZN6google8protobuf8internal14AddDescriptorsEPKNS1_15DescriptorTableE
   fun:_ZN6google8protobuf8internal14AddDescriptorsEPKNS1_15DescriptorTableE
}
